ccopy_reg
_reconstructor
p0
(csklearn.linear_model.base
LinearRegression
p1
c__builtin__
object
p2
Ntp3
Rp4
(dp5
S'normalize'
p6
I00
sS'n_jobs'
p7
NsS'rank_'
p8
I5
sS'fit_intercept'
p9
I01
sS'_residues'
p10
cnumpy.core.multiarray
scalar
p11
(cnumpy
dtype
p12
(S'f8'
p13
I0
I1
tp14
Rp15
(I3
S'<'
p16
NNNI-1
I-1
I0
tp17
bS'\xb89\x0e\x8f``\x95@'
p18
tp19
Rp20
sS'coef_'
p21
cnumpy.core.multiarray
_reconstruct
p22
(cnumpy
ndarray
p23
(I0
tp24
S'b'
p25
tp26
Rp27
(I1
(I5
tp28
g15
I00
S'\xf0\xf2VQ\xe3\xd6\xc3?0PD\xba\xa1\x1d\xef?\xf6Y\x7f9+:\xc6\xbf]&\xf7}\x80\xbb\xd5\xbf\x00\xa1j\xf9\xcb/\xa4?'
p29
tp30
bsS'_sklearn_version'
p31
S'0.20.4'
p32
sS'copy_X'
p33
I01
sS'intercept_'
p34
g11
(g15
S'\xc8\xfax\xaa\xe9\xd8\xf7\xbf'
p35
tp36
Rp37
sS'singular_'
p38
g22
(g23
(I0
tp39
g25
tp40
Rp41
(I1
(I5
tp42
g15
I00
S'+\xef\xf9zXwc@\xb6\xbfQ\x92\x18\xc2V@\xa9\xe0\xc0\xdeF\xbc9@\xbf\x06\x96\xe3\xa22/@\xc1\x17\x0c\xe8\xab%)@'
p43
tp44
bsb.