ccopy_reg
_reconstructor
p0
(csklearn.linear_model.base
LinearRegression
p1
c__builtin__
object
p2
Ntp3
Rp4
(dp5
S'normalize'
p6
I00
sS'n_jobs'
p7
NsS'rank_'
p8
I5
sS'fit_intercept'
p9
I01
sS'_residues'
p10
cnumpy.core.multiarray
scalar
p11
(cnumpy
dtype
p12
(S'f8'
p13
I0
I1
tp14
Rp15
(I3
S'<'
p16
NNNI-1
I-1
I0
tp17
bS'pF\x85\x17\xf3\xa6\x95@'
p18
tp19
Rp20
sS'coef_'
p21
cnumpy.core.multiarray
_reconstruct
p22
(cnumpy
ndarray
p23
(I0
tp24
S'b'
p25
tp26
Rp27
(I1
(I5
tp28
g15
I00
S'\xa1\xbe\xe8\x8cM\xa7\xc1?E[\x1fA\xf3\x81\xef?p^\xe6\xd9\xef\x1e\xcf\xbf\x98V\xcdx\x1a2\xd4\xbfno`\x10\x9d\xd6\xa3?'
p29
tp30
bsS'_sklearn_version'
p31
S'0.20.4'
p32
sS'copy_X'
p33
I01
sS'intercept_'
p34
g11
(g15
S' \xbaf\x0c&|\xf4\xbf'
p35
tp36
Rp37
sS'singular_'
p38
g22
(g23
(I0
tp39
g25
tp40
Rp41
(I1
(I5
tp42
g15
I00
S'\x118\x12\x82\x8f5c@\xc9\xb3\xc5^\x1e\xfcU@\x9e\xd8\x98F\x88Z9@(\xe5\x19\x81MM/@\xf5\xa7rS\xc3\xc8)@'
p43
tp44
bsb.